; Function Attrs: nounwind sspstrong uwtable
define internal noundef i64 @strscan_concat(i64 noundef returned %0, i64 noundef %1) #0 {
  %3 = alloca i64, align 8
  store i64 %1, ptr %3, align 8, !tbaa !10
  %4 = tail call ptr @rb_check_typeddata(i64 noundef %0, ptr noundef nonnull @strscanner_type) #12
  %5 = getelementptr inbounds nuw i8, ptr %4, i64 8
  %6 = load i64, ptr %5, align 8, !tbaa !23
  %7 = icmp eq i64 %6, 4
  br i1 %7, label %8, label %10

8:                                                ; preds = %2
  %9 = load i64, ptr @rb_eArgError, align 8, !tbaa !10
  tail call void (i64, ptr, ...) @rb_raise(i64 noundef %9, ptr noundef nonnull @.str.66) #14
  unreachable

10:                                               ; preds = %2
  %11 = call i64 @rb_string_value(ptr noundef nonnull %3) #12
  %12 = load i64, ptr %5, align 8, !tbaa !23
  %13 = load i64, ptr %3, align 8, !tbaa !10
  %14 = call i64 @rb_str_append(i64 noundef %12, i64 noundef %13) #12
  ret i64 %0
}